; ModuleID = '45/1600.c'
source_filename = "45/1600.c"
target datalayout = "e-m:e-p270:32:32-p271:32:32-p272:64:64-i64:64-f80:128-n8:16:32:64-S128"
target triple = "x86_64-pc-linux-gnu"

@.str = private unnamed_addr constant [3 x i8] c"%s\00", align 1
@.str.1 = private unnamed_addr constant [3 x i8] c"%d\00", align 1

; Function Attrs: noinline nounwind uwtable
define dso_local i32 @main() #0 {
  %1 = alloca i32, align 4
  %2 = alloca [50 x i8], align 16
  %3 = alloca [50 x i8], align 16
  %4 = alloca i32, align 4
  %5 = alloca i32, align 4
  %6 = alloca i32, align 4
  %7 = alloca i32, align 4
  %8 = alloca i32, align 4
  store i32 0, i32* %1, align 4
  %9 = getelementptr inbounds [50 x i8], [50 x i8]* %2, i64 0, i64 0
  %10 = call i32 (i8*, ...) @__isoc99_scanf(i8* getelementptr inbounds ([3 x i8], [3 x i8]* @.str, i64 0, i64 0), i8* %9)
  %11 = getelementptr inbounds [50 x i8], [50 x i8]* %3, i64 0, i64 0
  %12 = call i32 (i8*, ...) @__isoc99_scanf(i8* getelementptr inbounds ([3 x i8], [3 x i8]* @.str, i64 0, i64 0), i8* %11)
  %13 = getelementptr inbounds [50 x i8], [50 x i8]* %2, i64 0, i64 0
  %14 = call i64 @strlen(i8* %13) #3
  %15 = trunc i64 %14 to i32
  store i32 %15, i32* %4, align 4
  %16 = getelementptr inbounds [50 x i8], [50 x i8]* %3, i64 0, i64 0
  %17 = call i64 @strlen(i8* %16) #3
  %18 = trunc i64 %17 to i32
  store i32 %18, i32* %5, align 4
  store i32 0, i32* %8, align 4
  store i32 0, i32* %6, align 4
  br label %19

19:                                               ; preds = %61, %0
  %20 = load i32, i32* %6, align 4
  %21 = load i32, i32* %5, align 4
  %22 = load i32, i32* %4, align 4
  %23 = sub nsw i32 %21, %22
  %24 = icmp sle i32 %20, %23
  br i1 %24, label %25, label %64

25:                                               ; preds = %19
  store i32 0, i32* %7, align 4
  br label %26

26:                                               ; preds = %46, %25
  %27 = load i32, i32* %7, align 4
  %28 = load i32, i32* %4, align 4
  %29 = icmp slt i32 %27, %28
  br i1 %29, label %30, label %49

30:                                               ; preds = %26
  %31 = load i32, i32* %6, align 4
  %32 = load i32, i32* %7, align 4
  %33 = add nsw i32 %31, %32
  %34 = sext i32 %33 to i64
  %35 = getelementptr inbounds [50 x i8], [50 x i8]* %3, i64 0, i64 %34
  %36 = load i8, i8* %35, align 1
  %37 = sext i8 %36 to i32
  %38 = load i32, i32* %7, align 4
  %39 = sext i32 %38 to i64
  %40 = getelementptr inbounds [50 x i8], [50 x i8]* %2, i64 0, i64 %39
  %41 = load i8, i8* %40, align 1
  %42 = sext i8 %41 to i32
  %43 = icmp ne i32 %37, %42
  br i1 %43, label %44, label %45

44:                                               ; preds = %30
  br label %49

45:                                               ; preds = %30
  br label %46

46:                                               ; preds = %45
  %47 = load i32, i32* %7, align 4
  %48 = add nsw i32 %47, 1
  store i32 %48, i32* %7, align 4
  br label %26

49:                                               ; preds = %44, %26
  %50 = load i32, i32* %7, align 4
  %51 = load i32, i32* %4, align 4
  %52 = icmp eq i32 %50, %51
  br i1 %52, label %53, label %56

53:                                               ; preds = %49
  %54 = load i32, i32* %6, align 4
  %55 = add nsw i32 %54, 1
  store i32 %55, i32* %8, align 4
  br label %56

56:                                               ; preds = %53, %49
  %57 = load i32, i32* %8, align 4
  %58 = icmp ne i32 %57, 0
  br i1 %58, label %59, label %60

59:                                               ; preds = %56
  br label %64

60:                                               ; preds = %56
  br label %61

61:                                               ; preds = %60
  %62 = load i32, i32* %6, align 4
  %63 = add nsw i32 %62, 1
  store i32 %63, i32* %6, align 4
  br label %19

64:                                               ; preds = %59, %19
  %65 = load i32, i32* %8, align 4
  %66 = sub nsw i32 %65, 1
  %67 = call i32 (i8*, ...) @printf(i8* getelementptr inbounds ([3 x i8], [3 x i8]* @.str.1, i64 0, i64 0), i32 %66)
  ret i32 0
}

declare dso_local i32 @__isoc99_scanf(i8*, ...) #1

; Function Attrs: nounwind readonly
declare dso_local i64 @strlen(i8*) #2

declare dso_local i32 @printf(i8*, ...) #1


!llvm.module.flags = !{!0}
!llvm.ident = !{!1}

!0 = !{i32 1, !"wchar_size", i32 4}
!1 = !{!"clang version 10.0.0-4ubuntu1 "}
