; ModuleID = 'source-C-CXX/44/1600.c'
source_filename = "source-C-CXX/44/1600.c"
target datalayout = "e-m:e-p270:32:32-p271:32:32-p272:64:64-i64:64-f80:128-n8:16:32:64-S128"
target triple = "x86_64-pc-linux-gnu"

@.str = private unnamed_addr constant [3 x i8] c"%s\00", align 1
@.str.1 = private unnamed_addr constant [3 x i8] c"%d\00", align 1

; Function Attrs: nofree nounwind sspstrong uwtable
define dso_local i32 @main() local_unnamed_addr #0 {
  %1 = alloca [50 x i8], align 16
  %2 = alloca [50 x i8], align 16
  %3 = getelementptr inbounds [50 x i8], [50 x i8]* %1, i64 0, i64 0
  call void @llvm.lifetime.start.p0i8(i64 50, i8* nonnull %3) #4
  %4 = getelementptr inbounds [50 x i8], [50 x i8]* %2, i64 0, i64 0
  call void @llvm.lifetime.start.p0i8(i64 50, i8* nonnull %4) #4
  %5 = call i32 (i8*, ...) @__isoc99_scanf(i8* getelementptr inbounds ([3 x i8], [3 x i8]* @.str, i64 0, i64 0), i8* nonnull %3)
  %6 = call i32 (i8*, ...) @__isoc99_scanf(i8* getelementptr inbounds ([3 x i8], [3 x i8]* @.str, i64 0, i64 0), i8* nonnull %4)
  %7 = call i64 @strlen(i8* noundef nonnull %3) #5
  %8 = trunc i64 %7 to i32
  %9 = call i64 @strlen(i8* noundef nonnull %4) #5
  %10 = trunc i64 %9 to i32
  %11 = sub nsw i32 %10, %8
  %12 = icmp sgt i32 %8, 0
  br i1 %12, label %13, label %37

13:                                               ; preds = %0
  %14 = sext i32 %11 to i64
  %15 = and i64 %7, 4294967295
  br label %16

16:                                               ; preds = %13, %27
  %17 = phi i64 [ 0, %13 ], [ %30, %27 ]
  %18 = icmp sgt i64 %17, %14
  br i1 %18, label %44, label %19

19:                                               ; preds = %16, %31
  %20 = phi i64 [ %32, %31 ], [ 0, %16 ]
  %21 = add nuw nsw i64 %20, %17
  %22 = getelementptr inbounds [50 x i8], [50 x i8]* %2, i64 0, i64 %21
  %23 = load i8, i8* %22, align 1, !tbaa !5
  %24 = getelementptr inbounds [50 x i8], [50 x i8]* %1, i64 0, i64 %20
  %25 = load i8, i8* %24, align 1, !tbaa !5
  %26 = icmp eq i8 %23, %25
  br i1 %26, label %31, label %27

27:                                               ; preds = %19
  %28 = trunc i64 %20 to i32
  %29 = icmp eq i32 %28, %8
  %30 = add nuw nsw i64 %17, 1
  br i1 %29, label %42, label %16, !llvm.loop !8

31:                                               ; preds = %19
  %32 = add nuw nsw i64 %20, 1
  %33 = icmp eq i64 %32, %15
  br i1 %33, label %34, label %19, !llvm.loop !10

34:                                               ; preds = %31
  %35 = trunc i64 %17 to i32
  %36 = add i32 %35, 1
  br label %44

37:                                               ; preds = %0
  %38 = icmp eq i32 %8, 0
  br i1 %38, label %39, label %44, !llvm.loop !8

39:                                               ; preds = %37
  %40 = xor i32 %11, -1
  %41 = lshr i32 %40, 31
  br label %44

42:                                               ; preds = %27
  %43 = trunc i64 %30 to i32
  br label %44

44:                                               ; preds = %16, %42, %34, %37, %39
  %45 = phi i32 [ %41, %39 ], [ 0, %37 ], [ %36, %34 ], [ %43, %42 ], [ 0, %16 ]
  %46 = add nsw i32 %45, -1
  %47 = call i32 (i8*, ...) @printf(i8* nonnull dereferenceable(1) getelementptr inbounds ([3 x i8], [3 x i8]* @.str.1, i64 0, i64 0), i32 %46)
  call void @llvm.lifetime.end.p0i8(i64 50, i8* nonnull %4) #4
  call void @llvm.lifetime.end.p0i8(i64 50, i8* nonnull %3) #4
  ret i32 0
}

; Function Attrs: argmemonly mustprogress nofree nosync nounwind willreturn
declare void @llvm.lifetime.start.p0i8(i64 immarg, i8* nocapture) #1

; Function Attrs: nofree nounwind
declare noundef i32 @__isoc99_scanf(i8* nocapture noundef readonly, ...) local_unnamed_addr #2

; Function Attrs: argmemonly mustprogress nofree nounwind readonly willreturn
declare i64 @strlen(i8* nocapture) local_unnamed_addr #3

; Function Attrs: nofree nounwind
declare noundef i32 @printf(i8* nocapture noundef readonly, ...) local_unnamed_addr #2

; Function Attrs: argmemonly mustprogress nofree nosync nounwind willreturn
declare void @llvm.lifetime.end.p0i8(i64 immarg, i8* nocapture) #1


!llvm.module.flags = !{!0, !1, !2, !3}
!llvm.ident = !{!4}

!0 = !{i32 1, !"wchar_size", i32 4}
!1 = !{i32 7, !"PIC Level", i32 2}
!2 = !{i32 7, !"PIE Level", i32 2}
!3 = !{i32 7, !"uwtable", i32 1}
!4 = !{!"clang version 13.0.0"}
!5 = !{!6, !6, i64 0}
!6 = !{!"omnipotent char", !7, i64 0}
!7 = !{!"Simple C/C++ TBAA"}
!8 = distinct !{!8, !9}
!9 = !{!"llvm.loop.mustprogress"}
!10 = distinct !{!10, !9}
